#include <math.h>
#include <stdio.h>
#include <stdlib.h>
#include <string.h>


int main()
{
	char a[200];
	gets(a);
    int len;
	len=strlen(a);
	for(int i=0;i<len;i++)
	{
		if(a[i]!=' ')printf("%c", a[i]);
		else if(a[i]==' ' && a[i+1]!=' ') printf(" ");
	}
	 return 0;
}








